; Function Attrs: nounwind uwtable
define dso_local void @slurm_get_ip_str(ptr noundef %0, ptr noundef %1, i32 noundef %2) local_unnamed_addr #1 {
  %4 = load i16, ptr %0, align 8
  %5 = icmp eq i16 %4, 10
  %. = select i1 %5, i64 8, i64 4
  %.10 = select i1 %5, i32 10, i32 2
  %6 = getelementptr inbounds nuw i8, ptr %0, i64 %.
  %7 = tail call ptr @inet_ntop(i32 noundef %.10, ptr noundef nonnull %6, ptr noundef %1, i32 noundef %2) #19
  ret void
}